; Function Attrs: mustprogress uwtable
define void @_ZN16PacketListHeader12removeColumnEv(ptr noundef nonnull align 8 dereferenceable(44) %0) #0 align 2 personality ptr @__gxx_personality_v0 {
  %2 = alloca %class.QVariant, align 8
  %3 = tail call noundef ptr @_ZNK7QObject6senderEv(ptr noundef nonnull align 8 dereferenceable(16) %0)
  %4 = tail call noundef ptr @_ZNK11QMetaObject4castEPK7QObject(ptr noundef nonnull align 8 dereferenceable(56) @_ZN7QAction16staticMetaObjectE, ptr noundef %3)
  %.not = icmp eq ptr %4, null
  br i1 %.not, label %19, label %5

5:                                                ; preds = %1
  %6 = getelementptr inbounds i8, ptr %4, i64 8
  %7 = load ptr, ptr %6, align 8
  %8 = getelementptr inbounds i8, ptr %7, i64 16
  %9 = load ptr, ptr %8, align 8
  %10 = tail call noundef ptr @_ZNK11QMetaObject4castEPK7QObject(ptr noundef nonnull align 8 dereferenceable(56) @_ZN5QMenu16staticMetaObjectE, ptr noundef %9)
  %.not8 = icmp eq ptr %10, null
  br i1 %.not8, label %19, label %11

11:                                               ; preds = %5
  call void @_ZNK7QObject8propertyEPKc(ptr dead_on_unwind nonnull writable sret(%class.QVariant) align 8 %2, ptr noundef nonnull align 8 dereferenceable(16) %10, ptr noundef nonnull @.str.3)
  %12 = invoke noundef i32 @_ZNK8QVariant5toIntEPb(ptr noundef nonnull align 8 dereferenceable(32) %2, ptr noundef null)
          to label %13 unwind label %17

13:                                               ; preds = %11
  call void @_ZN8QVariantD1Ev(ptr noundef nonnull align 8 dereferenceable(32) %2) #10
  %14 = call noundef i32 @_ZNK11QHeaderView5countEv(ptr noundef nonnull align 8 dereferenceable(40) %0)
  %15 = icmp sgt i32 %14, 2
  br i1 %15, label %16, label %19

16:                                               ; preds = %13
  call void @column_prefs_remove_nth(i32 noundef %12)
  call void @_ZN16PacketListHeader14columnsChangedEv(ptr noundef nonnull align 8 dereferenceable(44) %0)
  call void @prefs_main_write()
  br label %19

17:                                               ; preds = %11
  %18 = landingpad { ptr, i32 }
          cleanup
  call void @_ZN8QVariantD1Ev(ptr noundef nonnull align 8 dereferenceable(32) %2) #10
  resume { ptr, i32 } %18

19:                                               ; preds = %5, %1, %16, %13
  ret void
}